target datalayout = "e-m:e-p270:32:32-p271:32:32-p272:64:64-i64:64-i128:128-f80:128-n8:16:32:64-S128"
target triple = "x86_64-pc-linux-gnu"

%struct.H5O_ginfo_t = type { i32, i8, i16, i16, i8, i16, i16 }
%struct.H5CX_node_t = type { %struct.H5CX_t, ptr }
%struct.H5CX_t = type { i64, ptr, i64, ptr, i64, ptr, i64, ptr, i64, ptr, i64, ptr, i64, i32, i64, i8, ptr, i8, ptr, i8, i32, i8, [3 x double], i8, i64, i8, i32, i8, %struct.H5Z_cb_t, i8, ptr, i8, %struct.H5T_vlen_alloc_info_t, i8, %struct.H5T_conv_cb_t, i8, i32, i8, i8, i8, i32, i8, i8, i32, i8, i8, i32, i8, i32, i8, i64, i8, i8, i8, i8, i8, ptr, i8, ptr, i8, i32, i8, i32, i8, %struct.H5VL_connector_prop_t, i8, ptr, i8 }
%struct.H5Z_cb_t = type { ptr, ptr }
%struct.H5T_vlen_alloc_info_t = type { ptr, ptr, ptr, ptr }
%struct.H5T_conv_cb_t = type { ptr, ptr }
%struct.H5VL_connector_prop_t = type { ptr, ptr }

@H5P_CLS_GROUP_CREATE_ID_g = external global i64, align 8
@H5_libinit_g = external global i8, align 1
@H5_libterm_g = external global i8, align 1
@.str.1 = private unnamed_addr constant [101 x i8] c"generated/home/dtcxzyw/WorkSpace/Projects/compilers/llvm-opt-benchmark/bench/hdf5/hdf5/src/H5Pgcpl.c\00", align 1
@H5E_FUNC_g = external global i64, align 8
@H5E_CANTINIT_g = external global i64, align 8
@.str.2 = private unnamed_addr constant [30 x i8] c"library initialization failed\00", align 1
@H5P_init_g = external global i8, align 1
@.str.3 = private unnamed_addr constant [32 x i8] c"interface initialization failed\00", align 1
@H5E_CANTSET_g = external global i64, align 8
@.str.4 = private unnamed_addr constant [22 x i8] c"can't set API context\00", align 1
@H5E_ID_g = external global i64, align 8
@H5E_BADID_g = external global i64, align 8
@.str.5 = private unnamed_addr constant [25 x i8] c"can't find object for ID\00", align 1
@.str.6 = private unnamed_addr constant [11 x i8] c"group info\00", align 1
@H5E_PLIST_g = external global i64, align 8
@H5E_CANTGET_g = external global i64, align 8
@.str.7 = private unnamed_addr constant [21 x i8] c"can't get group info\00", align 1
@__func__.H5Pget_link_phase_change = private unnamed_addr constant [25 x i8] c"H5Pget_link_phase_change\00", align 1

; Function Attrs: nounwind uwtable
define i32 @H5Pget_link_phase_change(i64 noundef %0, ptr noundef %1, ptr noundef %2) #0 {
  %4 = alloca i32, align 4
  %5 = alloca i64, align 8
  %6 = alloca ptr, align 8
  %7 = alloca ptr, align 8
  %8 = alloca i32, align 4
  %9 = alloca %struct.H5CX_node_t, align 8
  %10 = alloca i8, align 1
  %11 = alloca i8, align 1
  %12 = alloca ptr, align 8
  %13 = alloca %struct.H5O_ginfo_t, align 4
  %14 = alloca i32, align 4
  store i64 %0, ptr %5, align 8, !tbaa !14
  store ptr %1, ptr %6, align 8, !tbaa !26
  store ptr %2, ptr %7, align 8, !tbaa !26
  call void @llvm.lifetime.start.p0(i64 4, ptr %8) #6
  store i32 0, ptr %8, align 4, !tbaa !8
  call void @llvm.lifetime.start.p0(i64 480, ptr %9) #6
  call void @llvm.memset.p0.i64(ptr align 8 %9, i8 0, i64 480, i1 false)
  call void @llvm.lifetime.start.p0(i64 1, ptr %10) #6
  store i8 0, ptr %10, align 1, !tbaa !10
  call void @llvm.lifetime.start.p0(i64 1, ptr %11) #6
  store i8 0, ptr %11, align 1, !tbaa !10
  br label %15

15:                                               ; preds = %3
  %16 = load i8, ptr @H5_libinit_g, align 1, !tbaa !10, !range !12, !noundef !13
  %17 = trunc i8 %16 to i1
  br i1 %17, label %22, label %18

18:                                               ; preds = %15
  %19 = load i8, ptr @H5_libterm_g, align 1, !tbaa !10, !range !12, !noundef !13
  %20 = trunc i8 %19 to i1
  %21 = xor i1 %20, true
  br label %22

22:                                               ; preds = %18, %15
  %23 = phi i1 [ false, %15 ], [ %21, %18 ]
  %24 = xor i1 %23, true
  %25 = xor i1 %24, true
  %26 = zext i1 %25 to i32
  %27 = sext i32 %26 to i64
  %28 = call i64 @llvm.expect.i64(i64 %27, i64 0)
  %29 = icmp ne i64 %28, 0
  br i1 %29, label %30, label %59

30:                                               ; preds = %22
  %31 = call i32 @H5_init_library()
  %32 = icmp slt i32 %31, 0
  %33 = xor i1 %32, true
  %34 = xor i1 %33, true
  %35 = zext i1 %34 to i32
  %36 = sext i32 %35 to i64
  %37 = call i64 @llvm.expect.i64(i64 %36, i64 0)
  %38 = icmp ne i64 %37, 0
  br i1 %38, label %39, label %58

39:                                               ; preds = %30
  br label %40

40:                                               ; preds = %39
  br label %41

41:                                               ; preds = %40
  br label %42

42:                                               ; preds = %41
  %43 = load i64, ptr @H5E_FUNC_g, align 8, !tbaa !14
  %44 = load i64, ptr @H5E_CANTINIT_g, align 8, !tbaa !14
  %45 = call i32 (ptr, ptr, i32, i64, i64, ptr, ...) @H5E_printf_stack(ptr noundef @.str.1, ptr noundef @__func__.H5Pget_link_phase_change, i32 noundef 280, i64 noundef %43, i64 noundef %44, ptr noundef @.str.2)
  br label %46

46:                                               ; preds = %42
  br label %47

47:                                               ; preds = %46
  store i8 1, ptr %11, align 1, !tbaa !10
  %48 = load i8, ptr %11, align 1, !tbaa !10, !range !12, !noundef !13
  %49 = trunc i8 %48 to i1
  %50 = zext i1 %49 to i8
  store i8 %50, ptr %11, align 1, !tbaa !10
  br label %51

51:                                               ; preds = %47
  br label %52

52:                                               ; preds = %51
  br label %53

53:                                               ; preds = %52
  store i32 -1, ptr %8, align 4, !tbaa !8
  br label %206

54:                                               ; No predecessors!
  br label %55

55:                                               ; preds = %54
  br label %56

56:                                               ; preds = %55
  br label %57

57:                                               ; preds = %56
  br label %58

58:                                               ; preds = %57, %30
  br label %59

59:                                               ; preds = %58, %22
  %60 = load i8, ptr @H5P_init_g, align 1, !tbaa !10, !range !12, !noundef !13
  %61 = trunc i8 %60 to i1
  br i1 %61, label %66, label %62

62:                                               ; preds = %59
  %63 = load i8, ptr @H5_libterm_g, align 1, !tbaa !10, !range !12, !noundef !13
  %64 = trunc i8 %63 to i1
  %65 = xor i1 %64, true
  br label %66

66:                                               ; preds = %62, %59
  %67 = phi i1 [ false, %59 ], [ %65, %62 ]
  %68 = xor i1 %67, true
  %69 = xor i1 %68, true
  %70 = zext i1 %69 to i32
  %71 = sext i32 %70 to i64
  %72 = call i64 @llvm.expect.i64(i64 %71, i64 0)
  %73 = icmp ne i64 %72, 0
  br i1 %73, label %74, label %97

74:                                               ; preds = %66
  store i8 1, ptr @H5P_init_g, align 1, !tbaa !10
  %75 = call i32 @H5P__init_package()
  %76 = icmp slt i32 %75, 0
  br i1 %76, label %77, label %96

77:                                               ; preds = %74
  store i8 0, ptr @H5P_init_g, align 1, !tbaa !10
  br label %78

78:                                               ; preds = %77
  br label %79

79:                                               ; preds = %78
  br label %80

80:                                               ; preds = %79
  %81 = load i64, ptr @H5E_FUNC_g, align 8, !tbaa !14
  %82 = load i64, ptr @H5E_CANTINIT_g, align 8, !tbaa !14
  %83 = call i32 (ptr, ptr, i32, i64, i64, ptr, ...) @H5E_printf_stack(ptr noundef @.str.1, ptr noundef @__func__.H5Pget_link_phase_change, i32 noundef 280, i64 noundef %81, i64 noundef %82, ptr noundef @.str.3)
  br label %84

84:                                               ; preds = %80
  br label %85

85:                                               ; preds = %84
  store i8 1, ptr %11, align 1, !tbaa !10
  %86 = load i8, ptr %11, align 1, !tbaa !10, !range !12, !noundef !13
  %87 = trunc i8 %86 to i1
  %88 = zext i1 %87 to i8
  store i8 %88, ptr %11, align 1, !tbaa !10
  br label %89

89:                                               ; preds = %85
  br label %90

90:                                               ; preds = %89
  br label %91

91:                                               ; preds = %90
  store i32 -1, ptr %8, align 4, !tbaa !8
  br label %206

92:                                               ; No predecessors!
  br label %93

93:                                               ; preds = %92
  br label %94

94:                                               ; preds = %93
  br label %95

95:                                               ; preds = %94
  br label %96

96:                                               ; preds = %95, %74
  br label %97

97:                                               ; preds = %96, %66
  br label %98

98:                                               ; preds = %97
  br label %99

99:                                               ; preds = %98
  br label %100

100:                                              ; preds = %99
  %101 = call i32 @H5CX_push(ptr noundef %9)
  %102 = icmp slt i32 %101, 0
  %103 = xor i1 %102, true
  %104 = xor i1 %103, true
  %105 = zext i1 %104 to i32
  %106 = sext i32 %105 to i64
  %107 = call i64 @llvm.expect.i64(i64 %106, i64 0)
  %108 = icmp ne i64 %107, 0
  br i1 %108, label %109, label %128

109:                                              ; preds = %100
  br label %110

110:                                              ; preds = %109
  br label %111

111:                                              ; preds = %110
  br label %112

112:                                              ; preds = %111
  %113 = load i64, ptr @H5E_FUNC_g, align 8, !tbaa !14
  %114 = load i64, ptr @H5E_CANTSET_g, align 8, !tbaa !14
  %115 = call i32 (ptr, ptr, i32, i64, i64, ptr, ...) @H5E_printf_stack(ptr noundef @.str.1, ptr noundef @__func__.H5Pget_link_phase_change, i32 noundef 280, i64 noundef %113, i64 noundef %114, ptr noundef @.str.4)
  br label %116

116:                                              ; preds = %112
  br label %117

117:                                              ; preds = %116
  store i8 1, ptr %11, align 1, !tbaa !10
  %118 = load i8, ptr %11, align 1, !tbaa !10, !range !12, !noundef !13
  %119 = trunc i8 %118 to i1
  %120 = zext i1 %119 to i8
  store i8 %120, ptr %11, align 1, !tbaa !10
  br label %121

121:                                              ; preds = %117
  br label %122

122:                                              ; preds = %121
  br label %123

123:                                              ; preds = %122
  store i32 -1, ptr %8, align 4, !tbaa !8
  br label %206

124:                                              ; No predecessors!
  br label %125

125:                                              ; preds = %124
  br label %126

126:                                              ; preds = %125
  br label %127

127:                                              ; preds = %126
  br label %129

128:                                              ; preds = %100
  store i8 1, ptr %10, align 1, !tbaa !10
  br label %129

129:                                              ; preds = %128, %127
  br label %130

130:                                              ; preds = %129
  br label %131

131:                                              ; preds = %130
  %132 = call i32 @H5E_clear_stack()
  %133 = load ptr, ptr %6, align 8, !tbaa !26
  %134 = icmp ne ptr %133, null
  br i1 %134, label %138, label %135

135:                                              ; preds = %131
  %136 = load ptr, ptr %7, align 8, !tbaa !26
  %137 = icmp ne ptr %136, null
  br i1 %137, label %138, label %205

138:                                              ; preds = %135, %131
  call void @llvm.lifetime.start.p0(i64 8, ptr %12) #6
  call void @llvm.lifetime.start.p0(i64 16, ptr %13) #6
  %139 = load i64, ptr %5, align 8, !tbaa !14
  %140 = load i64, ptr @H5P_CLS_GROUP_CREATE_ID_g, align 8, !tbaa !14
  %141 = call ptr @H5P_object_verify(i64 noundef %139, i64 noundef %140, i1 noundef zeroext true)
  store ptr %141, ptr %12, align 8, !tbaa !16
  %142 = icmp eq ptr null, %141
  br i1 %142, label %143, label %162

143:                                              ; preds = %138
  br label %144

144:                                              ; preds = %143
  br label %145

145:                                              ; preds = %144
  br label %146

146:                                              ; preds = %145
  %147 = load i64, ptr @H5E_ID_g, align 8, !tbaa !14
  %148 = load i64, ptr @H5E_BADID_g, align 8, !tbaa !14
  %149 = call i32 (ptr, ptr, i32, i64, i64, ptr, ...) @H5E_printf_stack(ptr noundef @.str.1, ptr noundef @__func__.H5Pget_link_phase_change, i32 noundef 289, i64 noundef %147, i64 noundef %148, ptr noundef @.str.5)
  br label %150

150:                                              ; preds = %146
  br label %151

151:                                              ; preds = %150
  store i8 1, ptr %11, align 1, !tbaa !10
  %152 = load i8, ptr %11, align 1, !tbaa !10, !range !12, !noundef !13
  %153 = trunc i8 %152 to i1
  %154 = zext i1 %153 to i8
  store i8 %154, ptr %11, align 1, !tbaa !10
  br label %155

155:                                              ; preds = %151
  br label %156

156:                                              ; preds = %155
  br label %157

157:                                              ; preds = %156
  store i32 -1, ptr %8, align 4, !tbaa !8
  store i32 12, ptr %14, align 4
  br label %202

158:                                              ; No predecessors!
  br label %159

159:                                              ; preds = %158
  br label %160

160:                                              ; preds = %159
  br label %161

161:                                              ; preds = %160
  br label %162

162:                                              ; preds = %161, %138
  %163 = load ptr, ptr %12, align 8, !tbaa !16
  %164 = call i32 @H5P_get(ptr noundef %163, ptr noundef @.str.6, ptr noundef %13)
  %165 = icmp slt i32 %164, 0
  br i1 %165, label %166, label %185

166:                                              ; preds = %162
  br label %167

167:                                              ; preds = %166
  br label %168

168:                                              ; preds = %167
  br label %169

169:                                              ; preds = %168
  %170 = load i64, ptr @H5E_PLIST_g, align 8, !tbaa !14
  %171 = load i64, ptr @H5E_CANTGET_g, align 8, !tbaa !14
  %172 = call i32 (ptr, ptr, i32, i64, i64, ptr, ...) @H5E_printf_stack(ptr noundef @.str.1, ptr noundef @__func__.H5Pget_link_phase_change, i32 noundef 293, i64 noundef %170, i64 noundef %171, ptr noundef @.str.7)
  br label %173

173:                                              ; preds = %169
  br label %174

174:                                              ; preds = %173
  store i8 1, ptr %11, align 1, !tbaa !10
  %175 = load i8, ptr %11, align 1, !tbaa !10, !range !12, !noundef !13
  %176 = trunc i8 %175 to i1
  %177 = zext i1 %176 to i8
  store i8 %177, ptr %11, align 1, !tbaa !10
  br label %178

178:                                              ; preds = %174
  br label %179

179:                                              ; preds = %178
  br label %180

180:                                              ; preds = %179
  store i32 -1, ptr %8, align 4, !tbaa !8
  store i32 12, ptr %14, align 4
  br label %202

181:                                              ; No predecessors!
  br label %182

182:                                              ; preds = %181
  br label %183

183:                                              ; preds = %182
  br label %184

184:                                              ; preds = %183
  br label %185

185:                                              ; preds = %184, %162
  %186 = load ptr, ptr %6, align 8, !tbaa !26
  %187 = icmp ne ptr %186, null
  br i1 %187, label %188, label %193

188:                                              ; preds = %185
  %189 = getelementptr inbounds nuw %struct.H5O_ginfo_t, ptr %13, i32 0, i32 2
  %190 = load i16, ptr %189, align 2, !tbaa !24
  %191 = zext i16 %190 to i32
  %192 = load ptr, ptr %6, align 8, !tbaa !26
  store i32 %191, ptr %192, align 4, !tbaa !8
  br label %193

193:                                              ; preds = %188, %185
  %194 = load ptr, ptr %7, align 8, !tbaa !26
  %195 = icmp ne ptr %194, null
  br i1 %195, label %196, label %201

196:                                              ; preds = %193
  %197 = getelementptr inbounds nuw %struct.H5O_ginfo_t, ptr %13, i32 0, i32 3
  %198 = load i16, ptr %197, align 4, !tbaa !25
  %199 = zext i16 %198 to i32
  %200 = load ptr, ptr %7, align 8, !tbaa !26
  store i32 %199, ptr %200, align 4, !tbaa !8
  br label %201

201:                                              ; preds = %196, %193
  store i32 0, ptr %14, align 4
  br label %202

202:                                              ; preds = %180, %157, %201
  call void @llvm.lifetime.end.p0(i64 16, ptr %13) #6
  call void @llvm.lifetime.end.p0(i64 8, ptr %12) #6
  %203 = load i32, ptr %14, align 4
  switch i32 %203, label %230 [
    i32 0, label %204
    i32 12, label %206
  ]

204:                                              ; preds = %202
  br label %205

205:                                              ; preds = %204, %135
  br label %206

206:                                              ; preds = %205, %202, %123, %91, %53
  %207 = load i8, ptr %10, align 1, !tbaa !10, !range !12, !noundef !13
  %208 = trunc i8 %207 to i1
  %209 = xor i1 %208, true
  %210 = xor i1 %209, true
  %211 = zext i1 %210 to i32
  %212 = sext i32 %211 to i64
  %213 = call i64 @llvm.expect.i64(i64 %212, i64 1)
  %214 = icmp ne i64 %213, 0
  br i1 %214, label %215, label %217

215:                                              ; preds = %206
  %216 = call i32 @H5CX_pop(i1 noundef zeroext true)
  store i8 0, ptr %10, align 1, !tbaa !10
  br label %217

217:                                              ; preds = %215, %206
  %218 = load i8, ptr %11, align 1, !tbaa !10, !range !12, !noundef !13
  %219 = trunc i8 %218 to i1
  %220 = xor i1 %219, true
  %221 = xor i1 %220, true
  %222 = zext i1 %221 to i32
  %223 = sext i32 %222 to i64
  %224 = call i64 @llvm.expect.i64(i64 %223, i64 0)
  %225 = icmp ne i64 %224, 0
  br i1 %225, label %226, label %228

226:                                              ; preds = %217
  %227 = call i32 @H5E_dump_api_stack()
  br label %228

228:                                              ; preds = %226, %217
  %229 = load i32, ptr %8, align 4, !tbaa !8
  store i32 %229, ptr %4, align 4
  store i32 1, ptr %14, align 4
  br label %230

230:                                              ; preds = %228, %202
  call void @llvm.lifetime.end.p0(i64 1, ptr %11) #6
  call void @llvm.lifetime.end.p0(i64 1, ptr %10) #6
  call void @llvm.lifetime.end.p0(i64 480, ptr %9) #6
  call void @llvm.lifetime.end.p0(i64 4, ptr %8) #6
  %231 = load i32, ptr %4, align 4
  ret i32 %231
}